target datalayout = "e-m:e-p270:32:32-p271:32:32-p272:64:64-i64:64-i128:128-f80:128-n8:16:32:64-S128"
target triple = "x86_64-pc-linux-gnu"

%struct.ExprState = type { i32, i8, i8, i64, ptr, ptr, ptr, ptr, ptr, i32, i32, ptr, ptr, ptr, ptr, ptr, ptr, ptr }
%struct.ExprEvalStep = type { i64, ptr, ptr, %union.anon }
%union.anon = type { %struct.anon.23 }
%struct.anon.23 = type { ptr, ptr, i32, i32, ptr, ptr }
%struct.ExprContext = type { i32, ptr, ptr, ptr, ptr, ptr, ptr, ptr, ptr, ptr, i64, i8, i64, i8, ptr, ptr, ptr, ptr }
%struct.TupleTableSlot = type { i32, i16, i16, ptr, ptr, ptr, ptr, ptr, %struct.ItemPointerData, i32 }
%struct.ItemPointerData = type { %struct.BlockIdData, i16 }
%struct.BlockIdData = type { i16, i16 }
%struct.anon.2 = type { i32, i32 }

; Function Attrs: alwaysinline nounwind uwtable
define internal i64 @ExecJustAssignVarVirtImpl(ptr noundef %0, ptr noundef %1, ptr noundef %2) #9 {
  %4 = alloca ptr, align 8
  %5 = alloca ptr, align 8
  %6 = alloca ptr, align 8
  %7 = alloca ptr, align 8
  %8 = alloca i32, align 4
  %9 = alloca i32, align 4
  %10 = alloca ptr, align 8
  store ptr %0, ptr %4, align 8
  store ptr %1, ptr %5, align 8
  store ptr %2, ptr %6, align 8
  call void @llvm.lifetime.start.p0(i64 8, ptr %7) #11
  %11 = load ptr, ptr %4, align 8
  %12 = getelementptr inbounds nuw %struct.ExprState, ptr %11, i32 0, i32 5
  %13 = load ptr, ptr %12, align 8
  %14 = getelementptr inbounds %struct.ExprEvalStep, ptr %13, i64 0
  store ptr %14, ptr %7, align 8
  call void @llvm.lifetime.start.p0(i64 4, ptr %8) #11
  %15 = load ptr, ptr %7, align 8
  %16 = getelementptr inbounds nuw %struct.ExprEvalStep, ptr %15, i32 0, i32 3
  %17 = getelementptr inbounds nuw %struct.anon.2, ptr %16, i32 0, i32 1
  %18 = load i32, ptr %17, align 4
  store i32 %18, ptr %8, align 4
  call void @llvm.lifetime.start.p0(i64 4, ptr %9) #11
  %19 = load ptr, ptr %7, align 8
  %20 = getelementptr inbounds nuw %struct.ExprEvalStep, ptr %19, i32 0, i32 3
  %21 = getelementptr inbounds nuw %struct.anon.2, ptr %20, i32 0, i32 0
  %22 = load i32, ptr %21, align 8
  store i32 %22, ptr %9, align 4
  call void @llvm.lifetime.start.p0(i64 8, ptr %10) #11
  %23 = load ptr, ptr %4, align 8
  %24 = getelementptr inbounds nuw %struct.ExprState, ptr %23, i32 0, i32 4
  %25 = load ptr, ptr %24, align 8
  store ptr %25, ptr %10, align 8
  %26 = load ptr, ptr %5, align 8
  %27 = getelementptr inbounds nuw %struct.TupleTableSlot, ptr %26, i32 0, i32 5
  %28 = load ptr, ptr %27, align 8
  %29 = load i32, ptr %8, align 4
  %30 = sext i32 %29 to i64
  %31 = getelementptr inbounds i64, ptr %28, i64 %30
  %32 = load i64, ptr %31, align 8
  %33 = load ptr, ptr %10, align 8
  %34 = getelementptr inbounds nuw %struct.TupleTableSlot, ptr %33, i32 0, i32 5
  %35 = load ptr, ptr %34, align 8
  %36 = load i32, ptr %9, align 4
  %37 = sext i32 %36 to i64
  %38 = getelementptr inbounds i64, ptr %35, i64 %37
  store i64 %32, ptr %38, align 8
  %39 = load ptr, ptr %5, align 8
  %40 = getelementptr inbounds nuw %struct.TupleTableSlot, ptr %39, i32 0, i32 6
  %41 = load ptr, ptr %40, align 8
  %42 = load i32, ptr %8, align 4
  %43 = sext i32 %42 to i64
  %44 = getelementptr inbounds i8, ptr %41, i64 %43
  %45 = load i8, ptr %44, align 1, !range !7, !noundef !8
  %46 = trunc i8 %45 to i1
  %47 = load ptr, ptr %10, align 8
  %48 = getelementptr inbounds nuw %struct.TupleTableSlot, ptr %47, i32 0, i32 6
  %49 = load ptr, ptr %48, align 8
  %50 = load i32, ptr %9, align 4
  %51 = sext i32 %50 to i64
  %52 = getelementptr inbounds i8, ptr %49, i64 %51
  %53 = zext i1 %46 to i8
  store i8 %53, ptr %52, align 1
  call void @llvm.lifetime.end.p0(i64 8, ptr %10) #11
  call void @llvm.lifetime.end.p0(i64 4, ptr %9) #11
  call void @llvm.lifetime.end.p0(i64 4, ptr %8) #11
  call void @llvm.lifetime.end.p0(i64 8, ptr %7) #11
  ret i64 0
}

; Function Attrs: nounwind uwtable
define internal i64 @ExecJustAssignOuterVarVirt(ptr noundef %0, ptr noundef %1, ptr noundef %2) #0 {
  %4 = alloca ptr, align 8
  %5 = alloca ptr, align 8
  %6 = alloca ptr, align 8
  store ptr %0, ptr %4, align 8
  store ptr %1, ptr %5, align 8
  store ptr %2, ptr %6, align 8
  %7 = load ptr, ptr %4, align 8
  %8 = load ptr, ptr %5, align 8
  %9 = getelementptr inbounds nuw %struct.ExprContext, ptr %8, i32 0, i32 3
  %10 = load ptr, ptr %9, align 8
  %11 = load ptr, ptr %6, align 8
  %12 = call i64 @ExecJustAssignVarVirtImpl(ptr noundef %7, ptr noundef %10, ptr noundef %11)
  ret i64 %12
}